target datalayout = "e-m:e-p270:32:32-p271:32:32-p272:64:64-i64:64-i128:128-f80:128-n8:16:32:64-S128"
target triple = "x86_64-pc-linux-gnu"

%struct.PageHeaderData = type { %struct.PageXLogRecPtr, i16, i16, i16, i16, i16, i16, i32, [0 x %struct.ItemIdData] }
%struct.PageXLogRecPtr = type { i32, i32 }
%struct.ItemIdData = type { i32 }
%struct.BTPageOpaqueData = type { i32, i32, i32, i16, i16 }
%struct.BTScanInsertData = type { i8, i8, i8, i8, i8, ptr, i32, [32 x %struct.ScanKeyData] }
%struct.ScanKeyData = type { i32, i16, i16, i32, i32, %struct.FmgrInfo, i64 }
%struct.FmgrInfo = type { ptr, i32, i16, i8, i8, i8, ptr, ptr, ptr }
%struct.RelationData = type { %struct.RelFileLocator, ptr, i32, i32, i8, i8, i8, i8, i8, i32, i32, i32, i32, ptr, ptr, i32, %struct.LockInfoData, ptr, ptr, ptr, ptr, ptr, i8, ptr, ptr, ptr, ptr, ptr, ptr, i32, ptr, i8, ptr, ptr, i32, i8, i32, ptr, i8, ptr, ptr, ptr, ptr, ptr, ptr, ptr, i32, ptr, ptr, ptr, ptr, ptr, ptr, ptr, ptr, ptr, ptr, ptr, ptr, ptr, ptr, ptr, ptr, ptr, ptr, ptr, i32, i8, ptr }
%struct.RelFileLocator = type { i32, i32, i32 }
%struct.LockInfoData = type { %struct.LockRelId }
%struct.LockRelId = type { i32, i32 }
%struct.FormData_pg_class = type { i32, %struct.nameData, i32, i32, i32, i32, i32, i32, i32, i32, float, i32, i32, i8, i8, i8, i8, i16, i16, i8, i8, i8, i8, i8, i8, i8, i8, i32, i32, i32 }
%struct.nameData = type { [64 x i8] }

@.str.1 = private unnamed_addr constant [12 x i8] c"nbtsearch.c\00", align 1
@.str.4 = private unnamed_addr constant [31 x i8] c"fell off the end of index \22%s\22\00", align 1
@LocalBufferBlockPointers = external global ptr, align 8
@BufferBlocks = external global ptr, align 8
@__func__._bt_moveright = private unnamed_addr constant [14 x i8] c"_bt_moveright\00", align 1

; Function Attrs: inlinehint nounwind uwtable
define internal ptr @BufferGetBlock(i32 noundef %0) #3 {
  %2 = alloca ptr, align 8
  %3 = alloca i32, align 4
  store i32 %0, ptr %3, align 4
  %4 = load i32, ptr %3, align 4
  %5 = icmp slt i32 %4, 0
  br i1 %5, label %6, label %14

6:                                                ; preds = %1
  %7 = load ptr, ptr @LocalBufferBlockPointers, align 8
  %8 = load i32, ptr %3, align 4
  %9 = sub i32 0, %8
  %10 = sub i32 %9, 1
  %11 = sext i32 %10 to i64
  %12 = getelementptr inbounds ptr, ptr %7, i64 %11
  %13 = load ptr, ptr %12, align 8
  store ptr %13, ptr %2, align 8
  br label %21

14:                                               ; preds = %1
  %15 = load ptr, ptr @BufferBlocks, align 8
  %16 = load i32, ptr %3, align 4
  %17 = sub i32 %16, 1
  %18 = sext i32 %17 to i64
  %19 = mul i64 %18, 8192
  %20 = getelementptr inbounds nuw i8, ptr %15, i64 %19
  store ptr %20, ptr %2, align 8
  br label %21

21:                                               ; preds = %14, %6
  %22 = load ptr, ptr %2, align 8
  ret ptr %22
}

; Function Attrs: inlinehint nounwind uwtable
define internal void @PageValidateSpecialPointer(ptr noundef %0) #3 {
  %2 = alloca ptr, align 8
  store ptr %0, ptr %2, align 8
  ret void
}

; Function Attrs: inlinehint nounwind uwtable
define internal ptr @BufferGetPage(i32 noundef %0) #3 {
  %2 = alloca i32, align 4
  store i32 %0, ptr %2, align 4
  %3 = load i32, ptr %2, align 4
  %4 = call ptr @BufferGetBlock(i32 noundef %3)
  ret ptr %4
}

; Function Attrs: nounwind uwtable
define internal i32 @_bt_moveright(ptr noundef %0, ptr noundef %1, ptr noundef %2, i32 noundef %3, i1 noundef zeroext %4, ptr noundef %5, i32 noundef %6) #0 {
  %8 = alloca ptr, align 8
  %9 = alloca ptr, align 8
  %10 = alloca ptr, align 8
  %11 = alloca i32, align 4
  %12 = alloca i8, align 1
  %13 = alloca ptr, align 8
  %14 = alloca i32, align 4
  %15 = alloca ptr, align 8
  %16 = alloca ptr, align 8
  %17 = alloca i32, align 4
  %18 = alloca i32, align 4
  store ptr %0, ptr %8, align 8
  store ptr %1, ptr %9, align 8
  store ptr %2, ptr %10, align 8
  store i32 %3, ptr %11, align 4
  %19 = zext i1 %4 to i8
  store i8 %19, ptr %12, align 1
  store ptr %5, ptr %13, align 8
  store i32 %6, ptr %14, align 4
  call void @llvm.lifetime.start.p0(i64 8, ptr %15) #7
  call void @llvm.lifetime.start.p0(i64 8, ptr %16) #7
  call void @llvm.lifetime.start.p0(i64 4, ptr %17) #7
  %20 = load ptr, ptr %10, align 8
  %21 = getelementptr inbounds nuw %struct.BTScanInsertData, ptr %20, i32 0, i32 3
  %22 = load i8, ptr %21, align 1, !range !4, !noundef !5
  %23 = trunc i8 %22 to i1
  %24 = select i1 %23, i32 0, i32 1
  store i32 %24, ptr %17, align 4
  br label %25

25:                                               ; preds = %95, %76, %7
  %26 = load i32, ptr %11, align 4
  %27 = call ptr @BufferGetPage(i32 noundef %26)
  store ptr %27, ptr %15, align 8
  %28 = load ptr, ptr %15, align 8
  call void @PageValidateSpecialPointer(ptr noundef %28)
  %29 = load ptr, ptr %15, align 8
  %30 = load ptr, ptr %15, align 8
  %31 = getelementptr inbounds nuw %struct.PageHeaderData, ptr %30, i32 0, i32 5
  %32 = load i16, ptr %31, align 4
  %33 = zext i16 %32 to i32
  %34 = sext i32 %33 to i64
  %35 = getelementptr inbounds i8, ptr %29, i64 %34
  store ptr %35, ptr %16, align 8
  %36 = load ptr, ptr %16, align 8
  %37 = getelementptr inbounds nuw %struct.BTPageOpaqueData, ptr %36, i32 0, i32 1
  %38 = load i32, ptr %37, align 4
  %39 = icmp eq i32 %38, 0
  br i1 %39, label %40, label %41

40:                                               ; preds = %25
  br label %104

41:                                               ; preds = %25
  %42 = load i8, ptr %12, align 1, !range !4, !noundef !5
  %43 = trunc i8 %42 to i1
  br i1 %43, label %44, label %81

44:                                               ; preds = %41
  %45 = load ptr, ptr %16, align 8
  %46 = getelementptr inbounds nuw %struct.BTPageOpaqueData, ptr %45, i32 0, i32 3
  %47 = load i16, ptr %46, align 4
  %48 = zext i16 %47 to i32
  %49 = and i32 %48, 128
  %50 = icmp ne i32 %49, 0
  br i1 %50, label %51, label %81

51:                                               ; preds = %44
  call void @llvm.lifetime.start.p0(i64 4, ptr %18) #7
  %52 = load i32, ptr %11, align 4
  %53 = call i32 @BufferGetBlockNumber(i32 noundef %52)
  store i32 %53, ptr %18, align 4
  %54 = load i32, ptr %14, align 4
  %55 = icmp eq i32 %54, 1
  br i1 %55, label %56, label %61

56:                                               ; preds = %51
  %57 = load ptr, ptr %8, align 8
  %58 = load i32, ptr %11, align 4
  call void @_bt_unlockbuf(ptr noundef %57, i32 noundef %58)
  %59 = load ptr, ptr %8, align 8
  %60 = load i32, ptr %11, align 4
  call void @_bt_lockbuf(ptr noundef %59, i32 noundef %60, i32 noundef 2)
  br label %61

61:                                               ; preds = %56, %51
  %62 = load ptr, ptr %16, align 8
  %63 = getelementptr inbounds nuw %struct.BTPageOpaqueData, ptr %62, i32 0, i32 3
  %64 = load i16, ptr %63, align 4
  %65 = zext i16 %64 to i32
  %66 = and i32 %65, 128
  %67 = icmp ne i32 %66, 0
  br i1 %67, label %68, label %73

68:                                               ; preds = %61
  %69 = load ptr, ptr %8, align 8
  %70 = load ptr, ptr %9, align 8
  %71 = load i32, ptr %11, align 4
  %72 = load ptr, ptr %13, align 8
  call void @_bt_finish_split(ptr noundef %69, ptr noundef %70, i32 noundef %71, ptr noundef %72)
  br label %76

73:                                               ; preds = %61
  %74 = load ptr, ptr %8, align 8
  %75 = load i32, ptr %11, align 4
  call void @_bt_relbuf(ptr noundef %74, i32 noundef %75)
  br label %76

76:                                               ; preds = %73, %68
  %77 = load ptr, ptr %8, align 8
  %78 = load i32, ptr %18, align 4
  %79 = load i32, ptr %14, align 4
  %80 = call i32 @_bt_getbuf(ptr noundef %77, i32 noundef %78, i32 noundef %79)
  store i32 %80, ptr %11, align 4
  call void @llvm.lifetime.end.p0(i64 4, ptr %18) #7
  br label %25

81:                                               ; preds = %44, %41
  %82 = load ptr, ptr %16, align 8
  %83 = getelementptr inbounds nuw %struct.BTPageOpaqueData, ptr %82, i32 0, i32 3
  %84 = load i16, ptr %83, align 4
  %85 = zext i16 %84 to i32
  %86 = and i32 %85, 20
  %87 = icmp ne i32 %86, 0
  br i1 %87, label %95, label %88

88:                                               ; preds = %81
  %89 = load ptr, ptr %8, align 8
  %90 = load ptr, ptr %10, align 8
  %91 = load ptr, ptr %15, align 8
  %92 = call i32 @_bt_compare(ptr noundef %89, ptr noundef %90, ptr noundef %91, i16 noundef zeroext 1)
  %93 = load i32, ptr %17, align 4
  %94 = icmp sge i32 %92, %93
  br i1 %94, label %95, label %103

95:                                               ; preds = %88, %81
  %96 = load ptr, ptr %8, align 8
  %97 = load i32, ptr %11, align 4
  %98 = load ptr, ptr %16, align 8
  %99 = getelementptr inbounds nuw %struct.BTPageOpaqueData, ptr %98, i32 0, i32 1
  %100 = load i32, ptr %99, align 4
  %101 = load i32, ptr %14, align 4
  %102 = call i32 @_bt_relandgetbuf(ptr noundef %96, i32 noundef %97, i32 noundef %100, i32 noundef %101)
  store i32 %102, ptr %11, align 4
  br label %25

103:                                              ; preds = %88
  br label %104

104:                                              ; preds = %103, %40
  %105 = load ptr, ptr %16, align 8
  %106 = getelementptr inbounds nuw %struct.BTPageOpaqueData, ptr %105, i32 0, i32 3
  %107 = load i16, ptr %106, align 4
  %108 = zext i16 %107 to i32
  %109 = and i32 %108, 20
  %110 = icmp ne i32 %109, 0
  br i1 %110, label %111, label %128

111:                                              ; preds = %104
  br label %112

112:                                              ; preds = %111
  br i1 true, label %113, label %115

113:                                              ; preds = %112
  %114 = call zeroext i1 @errstart_cold(i32 noundef 21, ptr noundef null) #8
  br i1 %114, label %117, label %125

115:                                              ; preds = %112
  %116 = call zeroext i1 @errstart(i32 noundef 21, ptr noundef null)
  br i1 %116, label %117, label %125

117:                                              ; preds = %115, %113
  %118 = load ptr, ptr %8, align 8
  %119 = getelementptr inbounds nuw %struct.RelationData, ptr %118, i32 0, i32 13
  %120 = load ptr, ptr %119, align 8
  %121 = getelementptr inbounds nuw %struct.FormData_pg_class, ptr %120, i32 0, i32 1
  %122 = getelementptr inbounds nuw %struct.nameData, ptr %121, i32 0, i32 0
  %123 = getelementptr inbounds [64 x i8], ptr %122, i64 0, i64 0
  %124 = call i32 (ptr, ...) @errmsg_internal(ptr noundef @.str.4, ptr noundef %123)
  call void @errfinish(ptr noundef @.str.1, i32 noundef 318, ptr noundef @__func__._bt_moveright)
  br label %125

125:                                              ; preds = %117, %115, %113
  unreachable

126:                                              ; No predecessors!
  br label %127

127:                                              ; preds = %126
  br label %128

128:                                              ; preds = %127, %104
  %129 = load i32, ptr %11, align 4
  call void @llvm.lifetime.end.p0(i64 4, ptr %17) #7
  call void @llvm.lifetime.end.p0(i64 8, ptr %16) #7
  call void @llvm.lifetime.end.p0(i64 8, ptr %15) #7
  ret i32 %129
}