; Function Attrs: nounwind uwtable
define internal fastcc i32 @_bt_moveright(ptr noundef %0, ptr noundef %1, ptr noundef %2, i32 noundef %3, i1 noundef zeroext %4, ptr noundef %5, i32 noundef range(i32 1, 3) %6) unnamed_addr #0 {
  %8 = getelementptr inbounds nuw i8, ptr %2, i64 3
  %9 = load i8, ptr %8, align 1, !range !5, !noundef !6
  %10 = xor i8 %9, 1
  %not. = zext nneg i8 %10 to i32
  %11 = icmp eq i32 %6, 1
  br i1 %4, label %.split.us, label %.split

.split.us:                                        ; preds = %7, %.split.us.backedge
  %.0.us = phi i32 [ %.0.us.be, %.split.us.backedge ], [ %3, %7 ]
  %12 = icmp slt i32 %.0.us, 0
  br i1 %12, label %19, label %13

13:                                               ; preds = %.split.us
  %14 = load ptr, ptr @BufferBlocks, align 8
  %15 = add nsw i32 %.0.us, -1
  %16 = sext i32 %15 to i64
  %17 = shl nsw i64 %16, 13
  %18 = getelementptr inbounds nuw i8, ptr %14, i64 %17
  br label %BufferGetPage.exit.us

19:                                               ; preds = %.split.us
  %20 = load ptr, ptr @LocalBufferBlockPointers, align 8
  %21 = xor i32 %.0.us, -1
  %22 = zext nneg i32 %21 to i64
  %23 = getelementptr inbounds nuw ptr, ptr %20, i64 %22
  %24 = load ptr, ptr %23, align 8
  br label %BufferGetPage.exit.us

BufferGetPage.exit.us:                            ; preds = %19, %13
  %.0.i.i.us = phi ptr [ %24, %19 ], [ %18, %13 ]
  %25 = getelementptr inbounds nuw i8, ptr %.0.i.i.us, i64 16
  %26 = load i16, ptr %25, align 4
  %27 = zext i16 %26 to i64
  %28 = getelementptr inbounds nuw i8, ptr %.0.i.i.us, i64 %27
  %29 = getelementptr inbounds nuw i8, ptr %28, i64 4
  %30 = load i32, ptr %29, align 4
  %31 = icmp eq i32 %30, 0
  br i1 %31, label %.split40.us, label %32

32:                                               ; preds = %BufferGetPage.exit.us
  %33 = getelementptr inbounds nuw i8, ptr %28, i64 12
  %34 = load i16, ptr %33, align 4
  %35 = and i16 %34, 128
  %.not.us = icmp eq i16 %35, 0
  br i1 %.not.us, label %46, label %36

36:                                               ; preds = %32
  %37 = tail call i32 @BufferGetBlockNumber(i32 noundef %.0.us) #7
  br i1 %11, label %38, label %39

38:                                               ; preds = %36
  tail call void @_bt_unlockbuf(ptr noundef %0, i32 noundef %.0.us) #7
  tail call void @_bt_lockbuf(ptr noundef %0, i32 noundef %.0.us, i32 noundef 2) #7
  br label %39

39:                                               ; preds = %38, %36
  %40 = load i16, ptr %33, align 4
  %41 = and i16 %40, 128
  %.not37.us = icmp eq i16 %41, 0
  br i1 %.not37.us, label %43, label %42

42:                                               ; preds = %39
  tail call void @_bt_finish_split(ptr noundef %0, ptr noundef %1, i32 noundef %.0.us, ptr noundef %5) #7
  br label %44

43:                                               ; preds = %39
  tail call void @_bt_relbuf(ptr noundef %0, i32 noundef %.0.us) #7
  br label %44

44:                                               ; preds = %43, %42
  %45 = tail call i32 @_bt_getbuf(ptr noundef %0, i32 noundef %37, i32 noundef %6) #7
  br label %.split.us.backedge

46:                                               ; preds = %32
  %47 = and i16 %34, 20
  %.not35.us = icmp eq i16 %47, 0
  br i1 %.not35.us, label %48, label %50

48:                                               ; preds = %46
  %49 = tail call i32 @_bt_compare(ptr noundef %0, ptr noundef %2, ptr noundef nonnull %.0.i.i.us, i16 noundef zeroext 1)
  %.not36.us = icmp slt i32 %49, %not.
  br i1 %.not36.us, label %.split40.us, label %._crit_edge

._crit_edge:                                      ; preds = %48
  %.pre44 = load i32, ptr %29, align 4
  br label %50

50:                                               ; preds = %._crit_edge, %46
  %51 = phi i32 [ %.pre44, %._crit_edge ], [ %30, %46 ]
  %52 = tail call i32 @_bt_relandgetbuf(ptr noundef %0, i32 noundef %.0.us, i32 noundef %51, i32 noundef %6) #7
  br label %.split.us.backedge

.split.us.backedge:                               ; preds = %50, %44
  %.0.us.be = phi i32 [ %45, %44 ], [ %52, %50 ]
  br label %.split.us

.split:                                           ; preds = %7, %.backedge
  %.0 = phi i32 [ %80, %.backedge ], [ %3, %7 ]
  %53 = icmp slt i32 %.0, 0
  br i1 %53, label %54, label %60

54:                                               ; preds = %.split
  %55 = load ptr, ptr @LocalBufferBlockPointers, align 8
  %56 = xor i32 %.0, -1
  %57 = zext nneg i32 %56 to i64
  %58 = getelementptr inbounds nuw ptr, ptr %55, i64 %57
  %59 = load ptr, ptr %58, align 8
  br label %BufferGetPage.exit

60:                                               ; preds = %.split
  %61 = load ptr, ptr @BufferBlocks, align 8
  %62 = add nsw i32 %.0, -1
  %63 = sext i32 %62 to i64
  %64 = shl nsw i64 %63, 13
  %65 = getelementptr inbounds nuw i8, ptr %61, i64 %64
  br label %BufferGetPage.exit

BufferGetPage.exit:                               ; preds = %54, %60
  %.0.i.i = phi ptr [ %59, %54 ], [ %65, %60 ]
  %66 = getelementptr inbounds nuw i8, ptr %.0.i.i, i64 16
  %67 = load i16, ptr %66, align 4
  %68 = zext i16 %67 to i64
  %69 = getelementptr inbounds nuw i8, ptr %.0.i.i, i64 %68
  %70 = getelementptr inbounds nuw i8, ptr %69, i64 4
  %71 = load i32, ptr %70, align 4
  %72 = icmp eq i32 %71, 0
  br i1 %72, label %.split40.us, label %73

73:                                               ; preds = %BufferGetPage.exit
  %74 = getelementptr inbounds nuw i8, ptr %69, i64 12
  %75 = load i16, ptr %74, align 4
  %76 = and i16 %75, 20
  %.not35 = icmp eq i16 %76, 0
  br i1 %.not35, label %77, label %.backedge

77:                                               ; preds = %73
  %78 = tail call i32 @_bt_compare(ptr noundef %0, ptr noundef %2, ptr noundef nonnull %.0.i.i, i16 noundef zeroext 1)
  %.not36 = icmp slt i32 %78, %not.
  br i1 %.not36, label %.split40.us, label %..backedge_crit_edge

..backedge_crit_edge:                             ; preds = %77
  %.pre = load i32, ptr %70, align 4
  br label %.backedge

.backedge:                                        ; preds = %..backedge_crit_edge, %73
  %79 = phi i32 [ %.pre, %..backedge_crit_edge ], [ %71, %73 ]
  %80 = tail call i32 @_bt_relandgetbuf(ptr noundef %0, i32 noundef %.0, i32 noundef %79, i32 noundef %6) #7
  br label %.split

.split40.us:                                      ; preds = %BufferGetPage.exit, %77, %BufferGetPage.exit.us, %48
  %.us-phi = phi ptr [ %28, %48 ], [ %28, %BufferGetPage.exit.us ], [ %69, %77 ], [ %69, %BufferGetPage.exit ]
  %.us-phi41 = phi i32 [ %.0.us, %48 ], [ %.0.us, %BufferGetPage.exit.us ], [ %.0, %77 ], [ %.0, %BufferGetPage.exit ]
  %81 = getelementptr inbounds nuw i8, ptr %.us-phi, i64 12
  %82 = load i16, ptr %81, align 4
  %83 = and i16 %82, 20
  %.not38 = icmp eq i16 %83, 0
  br i1 %.not38, label %90, label %84

84:                                               ; preds = %.split40.us
  %85 = tail call zeroext i1 @errstart_cold(i32 noundef 21, ptr noundef null) #8
  tail call void @llvm.assume(i1 %85)
  %86 = getelementptr inbounds nuw i8, ptr %0, i64 56
  %87 = load ptr, ptr %86, align 8
  %88 = getelementptr inbounds nuw i8, ptr %87, i64 4
  %89 = tail call i32 (ptr, ...) @errmsg_internal(ptr noundef nonnull @.str.4, ptr noundef nonnull %88) #7
  tail call void @errfinish(ptr noundef nonnull @.str.1, i32 noundef 318, ptr noundef nonnull @__func__._bt_moveright) #7
  unreachable

90:                                               ; preds = %.split40.us
  ret i32 %.us-phi41
}